target datalayout = "e-m:e-p270:32:32-p271:32:32-p272:64:64-i64:64-i128:128-f80:128-n8:16:32:64-S128"
target triple = "x86_64-pc-linux-gnu"

%struct.hwloc__xml_export_state_s = type { ptr, ptr, ptr, ptr, ptr, ptr, [48 x i8] }
%struct.hwloc__libxml_export_state_data_s = type { ptr }

@hwloc_libxml2_init_once.checked = internal global i32 0, align 4
@.str.3 = private unnamed_addr constant [21 x i8] c"HWLOC_LIBXML_CLEANUP\00", align 1
@hwloc_libxml2_needs_cleanup = internal global i32 0, align 4
@.str.17 = private unnamed_addr constant [4 x i8] c"1.0\00", align 1
@.str.21 = private unnamed_addr constant [16 x i8] c"hwloc2-diff.dtd\00", align 1
@.str.23 = private unnamed_addr constant [13 x i8] c"topologydiff\00", align 1
@.str.24 = private unnamed_addr constant [8 x i8] c"refname\00", align 1

; Function Attrs: nounwind uwtable
define internal void @hwloc_libxml2_init_once() #0 {
  %1 = load i32, ptr @hwloc_libxml2_init_once.checked, align 4, !tbaa !12
  %2 = icmp ne i32 %1, 0
  br i1 %2, label %16, label %3

3:                                                ; preds = %0
  %4 = call i32 @hwloc__xml_verbose()
  %5 = icmp ne i32 %4, 0
  br i1 %5, label %6, label %9

6:                                                ; preds = %3
  %7 = call ptr @__xmlGenericError()
  %8 = load ptr, ptr %7, align 8, !tbaa !29
  br label %10

9:                                                ; preds = %3
  br label %10

10:                                               ; preds = %9, %6
  %11 = phi ptr [ %8, %6 ], [ @hwloc_libxml2_error_callback, %9 ]
  call void @xmlSetGenericErrorFunc(ptr noundef null, ptr noundef %11)
  %12 = call ptr @getenv(ptr noundef @.str.3) #7
  %13 = icmp ne ptr %12, null
  br i1 %13, label %14, label %15

14:                                               ; preds = %10
  store i32 1, ptr @hwloc_libxml2_needs_cleanup, align 4, !tbaa !12
  br label %15

15:                                               ; preds = %14, %10
  store i32 1, ptr @hwloc_libxml2_init_once.checked, align 4, !tbaa !12
  br label %16

16:                                               ; preds = %15, %0
  ret void
}

; Function Attrs: nounwind uwtable
define internal ptr @hwloc__libxml2_prepare_export_diff(ptr noundef %0, ptr noundef %1) #0 {
  %3 = alloca ptr, align 8
  %4 = alloca ptr, align 8
  %5 = alloca %struct.hwloc__xml_export_state_s, align 8
  %6 = alloca ptr, align 8
  %7 = alloca ptr, align 8
  %8 = alloca ptr, align 8
  store ptr %0, ptr %3, align 8, !tbaa !61
  store ptr %1, ptr %4, align 8, !tbaa !7
  call void @llvm.lifetime.start.p0(i64 96, ptr %5) #7
  call void @llvm.lifetime.start.p0(i64 8, ptr %6) #7
  %9 = getelementptr inbounds nuw %struct.hwloc__xml_export_state_s, ptr %5, i32 0, i32 6
  %10 = getelementptr inbounds [48 x i8], ptr %9, i64 0, i64 0
  store ptr %10, ptr %6, align 8, !tbaa !78
  call void @llvm.lifetime.start.p0(i64 8, ptr %7) #7
  store ptr null, ptr %7, align 8, !tbaa !14
  call void @llvm.lifetime.start.p0(i64 8, ptr %8) #7
  store ptr null, ptr %8, align 8, !tbaa !46
  call void @xmlCheckVersion(i32 noundef 20913)
  call void @hwloc_libxml2_init_once()
  %11 = call ptr @xmlNewDoc(ptr noundef @.str.17)
  store ptr %11, ptr %7, align 8, !tbaa !14
  %12 = call ptr @xmlNewNode(ptr noundef null, ptr noundef @.str.23)
  store ptr %12, ptr %8, align 8, !tbaa !46
  %13 = load ptr, ptr %4, align 8, !tbaa !7
  %14 = icmp ne ptr %13, null
  br i1 %14, label %15, label %19

15:                                               ; preds = %2
  %16 = load ptr, ptr %8, align 8, !tbaa !46
  %17 = load ptr, ptr %4, align 8, !tbaa !7
  %18 = call ptr @xmlNewProp(ptr noundef %16, ptr noundef @.str.24, ptr noundef %17)
  br label %19

19:                                               ; preds = %15, %2
  %20 = load ptr, ptr %7, align 8, !tbaa !14
  %21 = load ptr, ptr %8, align 8, !tbaa !46
  %22 = call ptr @xmlDocSetRootElement(ptr noundef %20, ptr noundef %21)
  %23 = load ptr, ptr %7, align 8, !tbaa !14
  %24 = call ptr @xmlCreateIntSubset(ptr noundef %23, ptr noundef @.str.23, ptr noundef null, ptr noundef @.str.21)
  %25 = getelementptr inbounds nuw %struct.hwloc__xml_export_state_s, ptr %5, i32 0, i32 1
  store ptr @hwloc__libxml_export_new_child, ptr %25, align 8, !tbaa !80
  %26 = getelementptr inbounds nuw %struct.hwloc__xml_export_state_s, ptr %5, i32 0, i32 2
  store ptr @hwloc__libxml_export_new_prop, ptr %26, align 8, !tbaa !83
  %27 = getelementptr inbounds nuw %struct.hwloc__xml_export_state_s, ptr %5, i32 0, i32 3
  store ptr @hwloc__libxml_export_add_content, ptr %27, align 8, !tbaa !84
  %28 = getelementptr inbounds nuw %struct.hwloc__xml_export_state_s, ptr %5, i32 0, i32 4
  store ptr @hwloc__libxml_export_end_object, ptr %28, align 8, !tbaa !85
  %29 = getelementptr inbounds nuw %struct.hwloc__xml_export_state_s, ptr %5, i32 0, i32 5
  store ptr null, ptr %29, align 8, !tbaa !86
  %30 = load ptr, ptr %8, align 8, !tbaa !46
  %31 = load ptr, ptr %6, align 8, !tbaa !78
  %32 = getelementptr inbounds nuw %struct.hwloc__libxml_export_state_data_s, ptr %31, i32 0, i32 0
  store ptr %30, ptr %32, align 8, !tbaa !59
  %33 = load ptr, ptr %3, align 8, !tbaa !61
  call void @hwloc__xml_export_diff(ptr noundef %5, ptr noundef %33)
  %34 = load ptr, ptr %7, align 8, !tbaa !14
  call void @llvm.lifetime.end.p0(i64 8, ptr %8) #7
  call void @llvm.lifetime.end.p0(i64 8, ptr %7) #7
  call void @llvm.lifetime.end.p0(i64 8, ptr %6) #7
  call void @llvm.lifetime.end.p0(i64 96, ptr %5) #7
  ret ptr %34
}