; Function Attrs: nounwind uwtable
define internal fastcc ptr @hwloc__libxml2_prepare_export_diff(ptr noundef %0, ptr noundef %1) unnamed_addr #1 {
  %3 = alloca %struct.hwloc__xml_export_state_s, align 8
  call void @llvm.lifetime.start.p0(i64 96, ptr nonnull %3) #11
  tail call void @xmlCheckVersion(i32 noundef 20913) #11
  %.b.i = load i1, ptr @hwloc_libxml2_init_once.checked, align 4
  br i1 %.b.i, label %hwloc_libxml2_init_once.exit, label %4

4:                                                ; preds = %2
  %5 = tail call i32 @hwloc__xml_verbose() #11
  %.not.i = icmp eq i32 %5, 0
  br i1 %.not.i, label %9, label %6

6:                                                ; preds = %4
  %7 = tail call ptr @__xmlGenericError() #11
  %8 = load ptr, ptr %7, align 8, !tbaa !3
  br label %9

9:                                                ; preds = %6, %4
  %10 = phi ptr [ %8, %6 ], [ @hwloc_libxml2_error_callback, %4 ]
  tail call void @xmlSetGenericErrorFunc(ptr noundef null, ptr noundef %10) #11
  %11 = tail call ptr @getenv(ptr noundef nonnull @.str.3) #11
  %.not1.i = icmp eq ptr %11, null
  br i1 %.not1.i, label %13, label %12

12:                                               ; preds = %9
  store i1 true, ptr @hwloc_libxml2_needs_cleanup, align 4
  br label %13

13:                                               ; preds = %12, %9
  store i1 true, ptr @hwloc_libxml2_init_once.checked, align 4
  br label %hwloc_libxml2_init_once.exit

hwloc_libxml2_init_once.exit:                     ; preds = %2, %13
  %14 = tail call ptr @xmlNewDoc(ptr noundef nonnull @.str.17) #11
  %15 = tail call ptr @xmlNewNode(ptr noundef null, ptr noundef nonnull @.str.23) #11
  %.not = icmp eq ptr %1, null
  br i1 %.not, label %18, label %16

16:                                               ; preds = %hwloc_libxml2_init_once.exit
  %17 = tail call ptr @xmlNewProp(ptr noundef %15, ptr noundef nonnull @.str.24, ptr noundef nonnull %1) #11
  br label %18

18:                                               ; preds = %16, %hwloc_libxml2_init_once.exit
  %19 = getelementptr inbounds nuw i8, ptr %3, i64 48
  %20 = tail call ptr @xmlDocSetRootElement(ptr noundef %14, ptr noundef %15) #11
  %21 = tail call ptr @xmlCreateIntSubset(ptr noundef %14, ptr noundef nonnull @.str.23, ptr noundef null, ptr noundef nonnull @.str.21) #11
  %22 = getelementptr inbounds nuw i8, ptr %3, i64 8
  store ptr @hwloc__libxml_export_new_child, ptr %22, align 8, !tbaa !54
  %23 = getelementptr inbounds nuw i8, ptr %3, i64 16
  store ptr @hwloc__libxml_export_new_prop, ptr %23, align 8, !tbaa !58
  %24 = getelementptr inbounds nuw i8, ptr %3, i64 24
  store ptr @hwloc__libxml_export_add_content, ptr %24, align 8, !tbaa !59
  %25 = getelementptr inbounds nuw i8, ptr %3, i64 32
  store ptr @hwloc__libxml_export_end_object, ptr %25, align 8, !tbaa !60
  %26 = getelementptr inbounds nuw i8, ptr %3, i64 40
  store ptr null, ptr %26, align 8, !tbaa !61
  store ptr %15, ptr %19, align 8, !tbaa !39
  call void @hwloc__xml_export_diff(ptr noundef nonnull %3, ptr noundef %0) #11
  call void @llvm.lifetime.end.p0(i64 96, ptr nonnull %3) #11
  ret ptr %14
}